; Function Attrs: mustprogress nounwind willreturn memory(read, argmem: readwrite, inaccessiblemem: readwrite) uwtable
define dso_local void @repo_unuse_commit_buffer(ptr noundef readonly captures(none) %0, ptr noundef readonly captures(none) %1, ptr noundef %2) local_unnamed_addr #9 {
  %4 = getelementptr inbounds nuw i8, ptr %0, i64 24
  %5 = load ptr, ptr %4, align 8, !tbaa !12
  %6 = getelementptr inbounds nuw i8, ptr %5, i64 112
  %7 = load ptr, ptr %6, align 8, !tbaa !76
  %8 = getelementptr i8, ptr %1, i64 64
  %.val = load i32, ptr %8, align 8, !tbaa !77
  %9 = load i32, ptr %7, align 8, !tbaa !70
  %10 = udiv i32 %.val, %9
  %11 = urem i32 %.val, %9
  %12 = getelementptr inbounds nuw i8, ptr %7, i64 8
  %13 = load i32, ptr %12, align 8, !tbaa !71
  %.not.i.i = icmp ugt i32 %13, %10
  br i1 %.not.i.i, label %._crit_edge4.i.i, label %buffer_slab_peek.exit.thread

._crit_edge4.i.i:                                 ; preds = %3
  %.phi.trans.insert.i.i = getelementptr inbounds nuw i8, ptr %7, i64 16
  %.pre.i.i = load ptr, ptr %.phi.trans.insert.i.i, align 8, !tbaa !72
  %14 = zext i32 %10 to i64
  %15 = getelementptr inbounds nuw ptr, ptr %.pre.i.i, i64 %14
  %16 = load ptr, ptr %15, align 8, !tbaa !73
  %.not35.i.i = icmp eq ptr %16, null
  br i1 %.not35.i.i, label %buffer_slab_peek.exit.thread, label %buffer_slab_peek.exit

buffer_slab_peek.exit:                            ; preds = %._crit_edge4.i.i
  %17 = getelementptr inbounds nuw i8, ptr %7, i64 4
  %18 = load i32, ptr %17, align 4, !tbaa !67
  %19 = mul i32 %18, %11
  %20 = zext i32 %19 to i64
  %21 = getelementptr inbounds nuw %struct.commit_buffer, ptr %16, i64 %20
  %22 = load ptr, ptr %21, align 8, !tbaa !79
  %23 = icmp eq ptr %22, %2
  br i1 %23, label %24, label %buffer_slab_peek.exit.thread

buffer_slab_peek.exit.thread:                     ; preds = %._crit_edge4.i.i, %3, %buffer_slab_peek.exit
  tail call void @free(ptr noundef %2) #24
  br label %24

24:                                               ; preds = %buffer_slab_peek.exit.thread, %buffer_slab_peek.exit
  ret void
}